; Function Attrs: mustprogress uwtable
define void @_ZN9benchmark5State17FinishKeepRunningEv(ptr noundef nonnull align 64 dereferenceable(184) %0) local_unnamed_addr #0 align 2 personality ptr @__gxx_personality_v0 {
  %2 = load atomic i8, ptr @_ZGVZN9benchmark8internal18GetNullLogInstanceEvE8null_log acquire, align 8
  %3 = icmp eq i8 %2, 0
  br i1 %3, label %4, label %_ZN9benchmark8internal18GetNullLogInstanceEv.exit, !prof !3

4:                                                ; preds = %1
  %5 = tail call i32 @__cxa_guard_acquire(ptr nonnull @_ZGVZN9benchmark8internal18GetNullLogInstanceEvE8null_log) #32
  %.not.i = icmp eq i32 %5, 0
  br i1 %.not.i, label %_ZN9benchmark8internal18GetNullLogInstanceEv.exit, label %6

6:                                                ; preds = %4
  store ptr null, ptr @_ZZN9benchmark8internal18GetNullLogInstanceEvE8null_log, align 8, !tbaa !59
  tail call void @__cxa_guard_release(ptr nonnull @_ZGVZN9benchmark8internal18GetNullLogInstanceEvE8null_log) #32
  br label %_ZN9benchmark8internal18GetNullLogInstanceEv.exit

_ZN9benchmark8internal18GetNullLogInstanceEv.exit: ; preds = %1, %4, %6
  %7 = getelementptr inbounds nuw i8, ptr %0, i64 28
  %8 = load i32, ptr %7, align 4, !tbaa !38
  %.not1 = icmp eq i32 %8, 0
  br i1 %.not1, label %9, label %10

9:                                                ; preds = %_ZN9benchmark8internal18GetNullLogInstanceEv.exit
  tail call void @_ZN9benchmark5State11PauseTimingEv(ptr noundef nonnull align 64 dereferenceable(184) %0)
  br label %10

10:                                               ; preds = %9, %_ZN9benchmark8internal18GetNullLogInstanceEv.exit
  store i64 0, ptr %0, align 64, !tbaa !129
  %11 = getelementptr inbounds nuw i8, ptr %0, i64 25
  store i8 1, ptr %11, align 1, !tbaa !37
  %12 = getelementptr inbounds nuw i8, ptr %0, i64 160
  %13 = load ptr, ptr %12, align 32, !tbaa !56
  %14 = getelementptr inbounds nuw i8, ptr %13, i64 208
  %15 = tail call noundef zeroext i1 @_ZN9benchmark7Barrier4waitEv(ptr noundef nonnull align 8 dereferenceable(100) %14)
  %16 = getelementptr inbounds nuw i8, ptr %0, i64 176
  %17 = load ptr, ptr %16, align 16, !tbaa !58
  %.not = icmp eq ptr %17, null
  br i1 %.not, label %22, label %18, !prof !131

18:                                               ; preds = %10
  %19 = load ptr, ptr %17, align 8, !tbaa !132
  %20 = getelementptr inbounds nuw i8, ptr %19, i64 24
  %21 = load ptr, ptr %20, align 8
  tail call void %21(ptr noundef nonnull align 8 dereferenceable(8) %17)
  br label %22

22:                                               ; preds = %18, %10
  ret void
}